; Function Attrs: mustprogress nounwind uwtable
define hidden void @_ZN12JfrOptionSet38release_start_flight_recording_optionsEv() local_unnamed_addr #3 align 2 {
  %1 = load ptr, ptr @_ZL36start_flight_recording_options_array, align 8
  %.not = icmp eq ptr %1, null
  br i1 %.not, label %17, label %2

2:                                                ; preds = %0
  %3 = load i32, ptr %1, align 4
  %4 = icmp sgt i32 %3, 0
  br i1 %4, label %.lr.ph.preheader, label %._crit_edge.thread

.lr.ph.preheader:                                 ; preds = %2
  %wide.trip.count = zext nneg i32 %3 to i64
  br label %.lr.ph

.lr.ph:                                           ; preds = %.lr.ph.preheader, %.lr.ph
  %indvars.iv = phi i64 [ 0, %.lr.ph.preheader ], [ %indvars.iv.next, %.lr.ph ]
  %5 = load ptr, ptr @_ZL36start_flight_recording_options_array, align 8
  %6 = getelementptr inbounds i8, ptr %5, i64 8
  %7 = load ptr, ptr %6, align 8
  %8 = getelementptr inbounds ptr, ptr %7, i64 %indvars.iv
  %9 = load ptr, ptr %8, align 8
  tail call void @_Z8FreeHeapPv(ptr noundef %9) #18
  %indvars.iv.next = add nuw nsw i64 %indvars.iv, 1
  %exitcond.not = icmp eq i64 %indvars.iv.next, %wide.trip.count
  br i1 %exitcond.not, label %._crit_edge, label %.lr.ph, !llvm.loop !8

._crit_edge:                                      ; preds = %.lr.ph
  %.pre = load ptr, ptr @_ZL36start_flight_recording_options_array, align 8
  %10 = icmp eq ptr %.pre, null
  br i1 %10, label %16, label %._crit_edge.thread

._crit_edge.thread:                               ; preds = %2, %._crit_edge
  %11 = phi ptr [ %.pre, %._crit_edge ], [ %1, %2 ]
  %12 = getelementptr inbounds i8, ptr %11, i64 16
  %13 = load i64, ptr %12, align 8
  %14 = and i64 %13, 1
  %.not.i = icmp eq i64 %14, 0
  br i1 %.not.i, label %_ZN13GrowableArrayIPKcED2Ev.exit, label %15

15:                                               ; preds = %._crit_edge.thread
  store i32 0, ptr %11, align 4
  tail call void @_ZN26GrowableArrayWithAllocatorIPKc13GrowableArrayIS1_EE13shrink_to_fitEv(ptr noundef nonnull align 8 dereferenceable(16) %11)
  br label %_ZN13GrowableArrayIPKcED2Ev.exit

_ZN13GrowableArrayIPKcED2Ev.exit:                 ; preds = %._crit_edge.thread, %15
  tail call void @_ZN6AnyObjdlEPv(ptr noundef nonnull %11) #18
  br label %16

16:                                               ; preds = %_ZN13GrowableArrayIPKcED2Ev.exit, %._crit_edge
  store ptr null, ptr @_ZL36start_flight_recording_options_array, align 8
  br label %17

17:                                               ; preds = %16, %0
  ret void
}